target datalayout = "e-m:e-p270:32:32-p271:32:32-p272:64:64-i64:64-i128:128-f80:128-n8:16:32:64-S128"
target triple = "x86_64-pc-linux-gnu"

%struct.strbuf = type { i64, i64, ptr }

; Function Attrs: inlinehint nounwind uwtable
define internal i64 @strbuf_avail(ptr noundef %0) #5 {
  %2 = alloca ptr, align 8
  store ptr %0, ptr %2, align 8, !tbaa !83
  %3 = load ptr, ptr %2, align 8, !tbaa !83
  %4 = getelementptr inbounds nuw %struct.strbuf, ptr %3, i32 0, i32 0
  %5 = load i64, ptr %4, align 8, !tbaa !103
  %6 = icmp ne i64 %5, 0
  br i1 %6, label %7, label %16

7:                                                ; preds = %1
  %8 = load ptr, ptr %2, align 8, !tbaa !83
  %9 = getelementptr inbounds nuw %struct.strbuf, ptr %8, i32 0, i32 0
  %10 = load i64, ptr %9, align 8, !tbaa !103
  %11 = load ptr, ptr %2, align 8, !tbaa !83
  %12 = getelementptr inbounds nuw %struct.strbuf, ptr %11, i32 0, i32 1
  %13 = load i64, ptr %12, align 8, !tbaa !94
  %14 = sub i64 %10, %13
  %15 = sub i64 %14, 1
  br label %17

16:                                               ; preds = %1
  br label %17

17:                                               ; preds = %16, %7
  %18 = phi i64 [ %15, %7 ], [ 0, %16 ]
  ret i64 %18
}

; Function Attrs: inlinehint nounwind uwtable
define internal void @strbuf_addch(ptr noundef %0, i32 noundef %1) #5 {
  %3 = alloca ptr, align 8
  %4 = alloca i32, align 4
  store ptr %0, ptr %3, align 8, !tbaa !83
  store i32 %1, ptr %4, align 4, !tbaa !9
  %5 = load ptr, ptr %3, align 8, !tbaa !83
  %6 = call i64 @strbuf_avail(ptr noundef %5)
  %7 = icmp ne i64 %6, 0
  br i1 %7, label %10, label %8

8:                                                ; preds = %2
  %9 = load ptr, ptr %3, align 8, !tbaa !83
  call void @strbuf_grow(ptr noundef %9, i64 noundef 1)
  br label %10

10:                                               ; preds = %8, %2
  %11 = load i32, ptr %4, align 4, !tbaa !9
  %12 = trunc i32 %11 to i8
  %13 = load ptr, ptr %3, align 8, !tbaa !83
  %14 = getelementptr inbounds nuw %struct.strbuf, ptr %13, i32 0, i32 2
  %15 = load ptr, ptr %14, align 8, !tbaa !88
  %16 = load ptr, ptr %3, align 8, !tbaa !83
  %17 = getelementptr inbounds nuw %struct.strbuf, ptr %16, i32 0, i32 1
  %18 = load i64, ptr %17, align 8, !tbaa !94
  %19 = add i64 %18, 1
  store i64 %19, ptr %17, align 8, !tbaa !94
  %20 = getelementptr inbounds nuw i8, ptr %15, i64 %18
  store i8 %12, ptr %20, align 1, !tbaa !82
  %21 = load ptr, ptr %3, align 8, !tbaa !83
  %22 = getelementptr inbounds nuw %struct.strbuf, ptr %21, i32 0, i32 2
  %23 = load ptr, ptr %22, align 8, !tbaa !88
  %24 = load ptr, ptr %3, align 8, !tbaa !83
  %25 = getelementptr inbounds nuw %struct.strbuf, ptr %24, i32 0, i32 1
  %26 = load i64, ptr %25, align 8, !tbaa !94
  %27 = getelementptr inbounds nuw i8, ptr %23, i64 %26
  store i8 0, ptr %27, align 1, !tbaa !82
  ret void
}

; Function Attrs: inlinehint nounwind uwtable
define internal void @strbuf_addstr(ptr noundef %0, ptr noundef %1) #5 {
  %3 = alloca ptr, align 8
  %4 = alloca ptr, align 8
  store ptr %0, ptr %3, align 8, !tbaa !83
  store ptr %1, ptr %4, align 8, !tbaa !62
  %5 = load ptr, ptr %3, align 8, !tbaa !83
  %6 = load ptr, ptr %4, align 8, !tbaa !62
  %7 = load ptr, ptr %4, align 8, !tbaa !62
  %8 = call i64 @strlen(ptr noundef %7) #11
  call void @strbuf_add(ptr noundef %5, ptr noundef %6, i64 noundef %8)
  ret void
}

; Function Attrs: nounwind uwtable
define internal void @append_basename(ptr noundef %0, ptr noundef %1, ptr noundef %2) #0 {
  %4 = alloca ptr, align 8
  %5 = alloca ptr, align 8
  %6 = alloca ptr, align 8
  %7 = alloca ptr, align 8
  store ptr %0, ptr %4, align 8, !tbaa !83
  store ptr %1, ptr %5, align 8, !tbaa !62
  store ptr %2, ptr %6, align 8, !tbaa !62
  call void @llvm.lifetime.start.p0(i64 8, ptr %7) #9
  %8 = load ptr, ptr %6, align 8, !tbaa !62
  %9 = call ptr @strrchr(ptr noundef %8, i32 noundef 47) #11
  store ptr %9, ptr %7, align 8, !tbaa !62
  %10 = load ptr, ptr %4, align 8, !tbaa !83
  %11 = load ptr, ptr %5, align 8, !tbaa !62
  call void @strbuf_addstr(ptr noundef %10, ptr noundef %11)
  br label %12

12:                                               ; preds = %31, %3
  %13 = load ptr, ptr %4, align 8, !tbaa !83
  %14 = getelementptr inbounds nuw %struct.strbuf, ptr %13, i32 0, i32 1
  %15 = load i64, ptr %14, align 8, !tbaa !94
  %16 = icmp ne i64 %15, 0
  br i1 %16, label %17, label %29

17:                                               ; preds = %12
  %18 = load ptr, ptr %4, align 8, !tbaa !83
  %19 = getelementptr inbounds nuw %struct.strbuf, ptr %18, i32 0, i32 2
  %20 = load ptr, ptr %19, align 8, !tbaa !88
  %21 = load ptr, ptr %4, align 8, !tbaa !83
  %22 = getelementptr inbounds nuw %struct.strbuf, ptr %21, i32 0, i32 1
  %23 = load i64, ptr %22, align 8, !tbaa !94
  %24 = sub i64 %23, 1
  %25 = getelementptr inbounds nuw i8, ptr %20, i64 %24
  %26 = load i8, ptr %25, align 1, !tbaa !82
  %27 = sext i8 %26 to i32
  %28 = icmp eq i32 %27, 47
  br label %29

29:                                               ; preds = %17, %12
  %30 = phi i1 [ false, %12 ], [ %28, %17 ]
  br i1 %30, label %31, label %36

31:                                               ; preds = %29
  %32 = load ptr, ptr %4, align 8, !tbaa !83
  %33 = getelementptr inbounds nuw %struct.strbuf, ptr %32, i32 0, i32 1
  %34 = load i64, ptr %33, align 8, !tbaa !94
  %35 = add i64 %34, -1
  store i64 %35, ptr %33, align 8, !tbaa !94
  br label %12, !llvm.loop !102

36:                                               ; preds = %29
  %37 = load ptr, ptr %4, align 8, !tbaa !83
  call void @strbuf_addch(ptr noundef %37, i32 noundef 47)
  %38 = load ptr, ptr %4, align 8, !tbaa !83
  %39 = load ptr, ptr %7, align 8, !tbaa !62
  %40 = icmp ne ptr %39, null
  br i1 %40, label %41, label %44

41:                                               ; preds = %36
  %42 = load ptr, ptr %7, align 8, !tbaa !62
  %43 = getelementptr inbounds i8, ptr %42, i64 1
  br label %46

44:                                               ; preds = %36
  %45 = load ptr, ptr %6, align 8, !tbaa !62
  br label %46

46:                                               ; preds = %44, %41
  %47 = phi ptr [ %43, %41 ], [ %45, %44 ]
  call void @strbuf_addstr(ptr noundef %38, ptr noundef %47)
  call void @llvm.lifetime.end.p0(i64 8, ptr %7) #9
  ret void
}