; Function Attrs: nounwind uwtable
define internal fastcc void @append_basename(ptr noundef nonnull %0, ptr noundef %1, ptr noundef %2) unnamed_addr #0 {
  %4 = tail call ptr @strrchr(ptr noundef nonnull dereferenceable(1) %2, i32 noundef 47) #15
  %5 = tail call i64 @strlen(ptr noundef nonnull dereferenceable(1) %1) #15
  tail call void @strbuf_add(ptr noundef nonnull %0, ptr noundef nonnull %1, i64 noundef %5) #13
  %6 = getelementptr inbounds nuw i8, ptr %0, i64 8
  %.promoted = load i64, ptr %6, align 8, !tbaa !82
  %.not14 = icmp eq i64 %.promoted, 0
  br i1 %.not14, label %.critedge, label %.lr.ph

.lr.ph:                                           ; preds = %3
  %7 = getelementptr inbounds nuw i8, ptr %0, i64 16
  %8 = load ptr, ptr %7, align 8, !tbaa !72
  %invariant.gep = getelementptr i8, ptr %8, i64 -1
  br label %9

9:                                                ; preds = %.lr.ph, %13
  %10 = phi i64 [ %.promoted, %.lr.ph ], [ %14, %13 ]
  %gep = getelementptr i8, ptr %invariant.gep, i64 %10
  %11 = load i8, ptr %gep, align 1, !tbaa !80
  %12 = icmp eq i8 %11, 47
  br i1 %12, label %13, label %.critedge

13:                                               ; preds = %9
  %14 = add i64 %10, -1
  store i64 %14, ptr %6, align 8, !tbaa !82
  %.not = icmp eq i64 %14, 0
  br i1 %.not, label %.critedge, label %9, !llvm.loop !90

.critedge:                                        ; preds = %9, %13, %3
  %.lcssa = phi i64 [ 0, %3 ], [ 0, %13 ], [ %10, %9 ]
  %15 = load i64, ptr %0, align 8, !tbaa !83
  %.not.i.i = icmp eq i64 %15, 0
  %.neg.i = add i64 %.lcssa, 1
  %.not.i = icmp eq i64 %15, %.neg.i
  %or.cond = or i1 %.not.i.i, %.not.i
  br i1 %or.cond, label %strbuf_avail.exit.thread.i, label %strbuf_addch.exit

strbuf_avail.exit.thread.i:                       ; preds = %.critedge
  tail call void @strbuf_grow(ptr noundef nonnull %0, i64 noundef 1) #13
  %.pre.i = load i64, ptr %6, align 8, !tbaa !82
  %.pre7.i = add i64 %.pre.i, 1
  br label %strbuf_addch.exit

strbuf_addch.exit:                                ; preds = %.critedge, %strbuf_avail.exit.thread.i
  %.pre-phi.i = phi i64 [ %.pre7.i, %strbuf_avail.exit.thread.i ], [ %.neg.i, %.critedge ]
  %16 = phi i64 [ %.pre.i, %strbuf_avail.exit.thread.i ], [ %.lcssa, %.critedge ]
  %17 = getelementptr inbounds nuw i8, ptr %0, i64 16
  %18 = load ptr, ptr %17, align 8, !tbaa !72
  store i64 %.pre-phi.i, ptr %6, align 8, !tbaa !82
  %19 = getelementptr inbounds nuw i8, ptr %18, i64 %16
  store i8 47, ptr %19, align 1, !tbaa !80
  %20 = load ptr, ptr %17, align 8, !tbaa !72
  %21 = load i64, ptr %6, align 8, !tbaa !82
  %22 = getelementptr inbounds nuw i8, ptr %20, i64 %21
  store i8 0, ptr %22, align 1, !tbaa !80
  %.not12 = icmp eq ptr %4, null
  %23 = getelementptr inbounds nuw i8, ptr %4, i64 1
  %24 = select i1 %.not12, ptr %2, ptr %23
  %25 = tail call i64 @strlen(ptr noundef nonnull dereferenceable(1) %24) #15
  tail call void @strbuf_add(ptr noundef nonnull %0, ptr noundef nonnull %24, i64 noundef %25) #13
  ret void
}